Certificate:
    Data:
        Version: 3 (0x2)
        Serial Number: 4 (0x4)
    Signature Algorithm: sha1WithRSAEncryption
        Issuer: O=My Company, OU=My Unit, L=My Town, ST=My State, C=US, CN=Sample CA
        Validity
            Not Before: Apr  4 21:35:58 2016 GMT
            Not After : Apr  2 21:35:58 2026 GMT
        Subject: C=US, ST=My State, O=My Company, OU=quickstart-123137:server2, CN=localhost
        Subject Public Key Info:
            Public Key Algorithm: rsaEncryption
                Public-Key: (4096 bit)
                Modulus:
                    00:a0:bf:ad:71:eb:ce:fe:b3:72:e5:85:26:50:26:
                    e3:3b:27:37:30:3d:0a:87:e6:ef:46:06:d6:cc:11:
                    e7:80:42:18:bc:32:91:da:30:b0:1a:51:99:8f:0d:
                    f2:c2:88:7f:45:fb:28:16:c0:79:3f:ea:13:11:23:
                    33:42:99:64:76:3f:d8:53:8b:e2:4e:62:fa:2b:79:
                    60:ac:ea:ce:b9:7b:ea:38:c9:54:6e:96:60:0d:58:
                    d1:cb:80:28:d6:6b:34:23:e7:1e:13:77:6c:c6:01:
                    21:cb:b7:57:02:c7:e7:c8:8a:80:86:9b:d9:b5:23:
                    fa:74:2a:97:de:95:44:f4:1d:37:b8:2a:f1:79:78:
                    1f:c1:a9:14:fc:0f:38:11:4f:6d:86:59:59:a5:45:
                    b8:32:5b:8e:85:b4:82:39:72:04:63:2a:17:66:e2:
                    40:63:c7:d8:32:fe:5b:bb:fd:49:70:5f:c8:3a:6c:
                    02:e4:42:92:f9:30:bb:b3:f8:d7:5f:f4:5e:af:c9:
                    4a:1b:a0:72:2b:7f:fe:92:9b:5e:bb:c0:a0:91:11:
                    00:5a:0a:5c:27:6f:83:ee:1b:ce:dd:14:4e:49:cb:
                    b0:ad:51:79:de:e1:04:67:ea:7e:a0:f4:e2:f8:ba:
                    f2:d5:f2:f5:c4:f8:b3:ac:11:73:29:c1:6f:e3:07:
                    f2:99:29:64:6b:f4:72:90:c2:28:14:cd:e6:1e:67:
                    ef:fd:37:71:94:10:b7:bc:c8:00:bb:de:32:33:7f:
                    b3:c6:3a:45:04:f0:c0:aa:04:94:70:76:0b:f0:7f:
                    57:5f:8b:c4:e6:1e:9c:99:2f:65:08:0c:55:b3:23:
                    83:1c:d2:b4:20:e5:74:a4:48:bc:3f:c6:df:d7:30:
                    f0:ef:a9:30:c9:7f:e6:1a:ea:c8:d7:8b:5c:ed:ce:
                    ba:5b:7e:d5:8c:ed:cf:30:bd:01:f8:5d:77:87:86:
                    ce:9e:5c:b5:68:ae:d3:24:f5:b6:39:e3:af:1e:72:
                    ef:8b:54:37:70:bb:ac:14:45:14:3d:5f:5c:3a:1e:
                    63:0f:3f:f1:98:04:7b:81:de:bd:2c:e7:c5:79:8f:
                    3a:73:a9:49:a9:ec:72:19:29:4e:67:42:87:31:9c:
                    ae:7f:ba:b5:46:aa:48:de:a6:e8:d5:74:a8:93:57:
                    4e:5e:59:e7:ae:26:39:9d:e9:e4:54:74:27:31:71:
                    eb:dc:e7:a5:b0:0b:06:bd:d5:dc:43:57:7b:6f:d9:
                    55:f5:bd:9e:32:37:9b:28:76:bd:4d:5d:29:5e:e2:
                    0a:78:8c:ee:12:72:8c:e1:70:6e:ed:3f:16:22:7e:
                    a1:c8:9a:ab:e2:27:0b:9e:1d:b8:3a:91:00:32:32:
                    27:27:53
                Exponent: 65537 (0x10001)
        X509v3 extensions:
            X509v3 Basic Constraints: 
                CA:FALSE
            X509v3 Subject Key Identifier: 
                5E:E2:A5:0D:AF:96:CF:58:17:D1:41:13:31:EB:27:03:89:25:A9:31
            X509v3 Extended Key Usage: 
                TLS Web Server Authentication, TLS Web Client Authentication
    Signature Algorithm: sha1WithRSAEncryption
         0d:8f:b8:1c:4b:71:4a:71:cd:8d:ed:56:45:9b:1e:71:8b:e5:
         af:a5:60:02:20:c1:61:9d:61:1d:b1:41:c7:73:7e:ef:08:19:
         29:15:86:b3:0b:69:f3:00:61:d9:94:bf:ef:53:fd:57:1d:14:
         c3:39:ba:36:61:a8:aa:c8:b9:5c:ba:a3:01:90:f6:54:ec:21:
         66:d4:38:e9:10:7f:98:d9:63:85:e2:fa:a3:83:3c:ef:f1:f5:
         61:49:c2:dd:11:55:cc:85:48:2f:03:9b:59:e4:90:99:54:c4:
         a7:c0:6c:1c:46:bf:89:2a:36:47:79:0d:3a:99:9c:71:a2:58:
         f6:4e:e1:c6:58:48:b0:de:d6:7f:0d:36:f3:e0:57:89:5a:5a:
         9a:6a:3f:1e:70:9b:de:2f:87:bb:d8:ab:31:d7:38:51:cc:d8:
         87:6d:91:d2:b2:fe:78:5a:07:bd:20:70:ae:56:aa:54:81:de:
         da:38:f3:4a:c8:a6:18:2e:78:c6:a6:83:0f:1c:9a:63:00:e7:
         7e:f0:30:04:12:5d:d7:66:f5:08:56:8e:53:13:2f:65:c9:e8:
         1f:78:5b:04:66:b5:d8:21:be:66:12:e1:44:4c:cb:8d:b1:44:
         f3:85:a8:33:3c:5b:f3:89:d1:f9:fb:fd:97:24:47:58:b9:34:
         58:ea:a2:4e:a6:b5:75:cd:24:39:47:d4:a0:78:10:2c:55:3d:
         b2:b0:91:66:72:40:54:8e:89:97:2b:4c:2a:db:ff:31:fa:9b:
         cb:d1:14:42:e7:d3:8b:db:e5:8a:84:ea:c9:fe:4b:6d:bd:66:
         8e:bd:c4:58:8c:24:1b:a7:29:02:7e:2e:ea:0b:2a:c0:22:c0:
         a6:f3:d6:36:22:2c:14:8f:42:e7:fd:33:29:c0:13:71:a2:aa:
         6b:b4:a7:30:ab:89:a5:9f:63:06:3e:7f:5c:9a:bb:4b:84:94:
         5e:85:eb:ec:ab:67:0f:a7:e4:46:5d:c0:a7:a2:26:08:c9:1e:
         f6:d6:47:af:ee:7e:86:cd:32:86:06:5e:a8:0c:3b:c4:55:74:
         c0:70:b1:f0:06:63:98:00:4b:52:d2:b6:7f:f3:5a:0f:0a:86:
         18:f1:d1:10:ad:92:26:b4:3b:6d:eb:9f:fa:5c:9e:37:89:f6:
         bb:92:1a:9a:13:60:d2:ea:63:61:7c:05:a3:cb:87:dc:5e:a7:
         43:5a:99:77:9b:45:8a:8e:45:64:13:cd:95:f7:fa:d0:c8:d9:
         ff:e0:3d:31:dd:00:4b:66:12:31:40:c9:2f:10:06:42:31:17:
         3d:4f:74:32:75:aa:69:19:4c:ef:bc:30:58:80:55:41:44:05:
         01:a4:38:1f:a2:d0:f6:ff
-----BEGIN CERTIFICATE-----
MIIFoDCCA4igAwIBAgIBBDANBgkqhkiG9w0BAQUFADBtMRMwEQYDVQQKEwpNeSBD
b21wYW55MRAwDgYDVQQLEwdNeSBVbml0MRAwDgYDVQQHEwdNeSBUb3duMREwDwYD
VQQIEwhNeSBTdGF0ZTELMAkGA1UEBhMCVVMxEjAQBgNVBAMTCVNhbXBsZSBDQTAe
Fw0xNjA0MDQyMTM1NThaFw0yNjA0MDIyMTM1NThaMG0xCzAJBgNVBAYTAlVTMREw
DwYDVQQIEwhNeSBTdGF0ZTETMBEGA1UEChMKTXkgQ29tcGFueTEiMCAGA1UECxMZ
cXVpY2tzdGFydC0xMjMxMzc6c2VydmVyMjESMBAGA1UEAxMJbG9jYWxob3N0MIIC
IjANBgkqhkiG9w0BAQEFAAOCAg8AMIICCgKCAgEAoL+tcevO/rNy5YUmUCbjOyc3
MD0Kh+bvRgbWzBHngEIYvDKR2jCwGlGZjw3ywoh/RfsoFsB5P+oTESMzQplkdj/Y
U4viTmL6K3lgrOrOuXvqOMlUbpZgDVjRy4Ao1ms0I+ceE3dsxgEhy7dXAsfnyIqA
hpvZtSP6dCqX3pVE9B03uCrxeXgfwakU/A84EU9thllZpUW4MluOhbSCOXIEYyoX
ZuJAY8fYMv5bu/1JcF/IOmwC5EKS+TC7s/jXX/Rer8lKG6ByK3/+kpteu8CgkREA
WgpcJ2+D7hvO3RROScuwrVF53uEEZ+p+oPTi+Lry1fL1xPizrBFzKcFv4wfymSlk
a/RykMIoFM3mHmfv/TdxlBC3vMgAu94yM3+zxjpFBPDAqgSUcHYL8H9XX4vE5h6c
mS9lCAxVsyODHNK0IOV0pEi8P8bf1zDw76kwyX/mGurI14tc7c66W37VjO3PML0B
+F13h4bOnly1aK7TJPW2OeOvHnLvi1Q3cLusFEUUPV9cOh5jDz/xmAR7gd69LOfF
eY86c6lJqexyGSlOZ0KHMZyuf7q1RqpI3qbo1XSok1dOXlnnriY5nenkVHQnMXHr
3OelsAsGvdXcQ1d7b9lV9b2eMjebKHa9TV0pXuIKeIzuEnKM4XBu7T8WIn6hyJqr
4icLnh24OpEAMjInJ1MCAwEAAaNLMEkwCQYDVR0TBAIwADAdBgNVHQ4EFgQUXuKl
Da+Wz1gX0UETMesnA4klqTEwHQYDVR0lBBYwFAYIKwYBBQUHAwEGCCsGAQUFBwMC
MA0GCSqGSIb3DQEBBQUAA4ICAQANj7gcS3FKcc2N7VZFmx5xi+WvpWACIMFhnWEd
sUHHc37vCBkpFYazC2nzAGHZlL/vU/1XHRTDObo2YaiqyLlcuqMBkPZU7CFm1Djp
EH+Y2WOF4vqjgzzv8fVhScLdEVXMhUgvA5tZ5JCZVMSnwGwcRr+JKjZHeQ06mZxx
olj2TuHGWEiw3tZ/DTbz4FeJWlqaaj8ecJveL4e72Ksx1zhRzNiHbZHSsv54Wge9
IHCuVqpUgd7aOPNKyKYYLnjGpoMPHJpjAOd+8DAEEl3XZvUIVo5TEy9lyegfeFsE
ZrXYIb5mEuFETMuNsUTzhagzPFvzidH5+/2XJEdYuTRY6qJOprV1zSQ5R9SgeBAs
VT2ysJFmckBUjomXK0wq2/8x+pvL0RRC59OL2+WKhOrJ/kttvWaOvcRYjCQbpykC
fi7qCyrAIsCm89Y2IiwUj0Ln/TMpwBNxoqprtKcwq4mln2MGPn9cmrtLhJRehevs
q2cPp+RGXcCnoiYIyR721kev7n6GzTKGBl6oDDvEVXTAcLHwBmOYAEtS0rZ/81oP
CoYY8dEQrZImtDtt65/6XJ43ifa7khqaE2DS6mNhfAWjy4fcXqdDWpl3m0WKjkVk
E82V9/rQyNn/4D0x3QBLZhIxQMkvEAZCMRc9T3QydappGUzvvDBYgFVBRAUBpDgf
otD2/w==
-----END CERTIFICATE-----
