Certificate:
    Data:
        Version: 3 (0x2)
        Serial Number: 1 (0x1)
    Signature Algorithm: sha1WithRSAEncryption
        Issuer: O=My Company, OU=My Unit, L=My Town, ST=My State, C=US, CN=Sample CA
        Validity
            Not Before: Apr  4 21:35:56 2016 GMT
            Not After : Apr  2 21:35:56 2026 GMT
        Subject: C=US, ST=My State, O=My Company, OU=zato-lb-agent, CN=localhost
        Subject Public Key Info:
            Public Key Algorithm: rsaEncryption
                Public-Key: (4096 bit)
                Modulus:
                    00:a8:b9:12:b0:20:20:7f:b6:cd:dc:cc:8b:21:26:
                    cb:20:9c:4f:ef:e8:23:aa:38:22:a1:a8:55:fc:c5:
                    43:39:e8:1f:17:e7:ad:2d:e0:bc:e5:4d:87:d0:1e:
                    ba:87:4c:af:15:bf:b9:a3:37:d9:ed:c2:af:c9:e0:
                    c7:0a:10:c2:91:5f:bf:cb:e5:e7:c9:8c:fe:d8:14:
                    d8:ca:d8:30:9e:cf:c9:dd:0d:06:c6:ef:22:bd:69:
                    c0:e9:ed:4e:77:fc:a7:f8:30:6a:3a:2e:9e:5c:9d:
                    f3:65:a9:a9:f0:a4:ca:84:71:18:77:cb:fb:67:35:
                    1a:fd:4d:be:bc:8f:d3:e2:61:af:80:d7:33:07:46:
                    f6:03:8a:b0:c7:54:44:b4:0b:7e:4d:1a:39:89:e3:
                    17:fe:b8:c4:6e:d1:ee:b7:e1:06:62:c6:a5:7d:44:
                    3f:b0:f3:13:41:08:ca:64:2f:b7:5e:cc:c2:55:d6:
                    a3:7b:fb:97:75:06:15:b4:b2:ba:ef:6e:17:fc:02:
                    40:52:14:6f:f4:17:20:58:8b:d0:68:8e:96:e0:ed:
                    85:9f:df:98:4b:c5:7c:59:06:ac:58:f8:e4:56:75:
                    a6:22:ce:3b:be:96:c3:43:cf:68:46:01:75:07:0d:
                    cc:15:92:5e:37:6f:89:ad:60:d5:ef:33:f6:03:71:
                    ed:b8:0b:90:b5:10:2d:48:3a:a0:d3:c3:44:5e:74:
                    19:c9:0f:72:0d:e4:c8:e5:ea:46:d1:3d:89:5e:b5:
                    26:f5:34:3c:a3:64:ad:76:3c:a1:c4:54:9c:60:47:
                    8e:18:57:c5:f0:0d:ba:57:81:85:0d:d8:3f:97:89:
                    57:5c:e9:8d:9e:d3:29:62:e0:32:ed:5d:e5:3d:48:
                    c1:51:5c:49:21:bd:6a:5a:cf:58:8b:9d:3a:02:82:
                    60:44:45:26:22:79:81:f6:87:e8:c1:c5:90:a6:98:
                    a8:e2:d0:3e:43:e3:94:48:3b:4e:fc:2b:f6:7e:a1:
                    b2:71:7e:c0:21:46:1a:90:00:04:16:63:18:8e:d3:
                    1b:a5:88:dd:d1:cf:63:c4:05:fb:48:3a:1d:17:d3:
                    cb:18:4d:50:dc:cf:88:e8:ef:09:b9:dc:a9:89:75:
                    bb:53:63:d6:a7:e1:96:ed:16:8f:94:1a:bb:7b:e0:
                    78:c5:d6:6d:94:b1:95:74:33:40:79:be:ea:5d:5a:
                    67:b8:4e:e1:ec:f5:91:2b:59:48:8a:40:bb:bf:ae:
                    a7:94:ad:96:07:7c:c1:13:a4:9e:fb:22:68:66:47:
                    8d:94:4e:c4:33:96:e9:5e:c2:ee:a8:e8:72:ff:6b:
                    90:6e:ec:be:9d:ff:6d:14:10:2c:29:e6:02:7d:34:
                    1c:cc:69
                Exponent: 65537 (0x10001)
        X509v3 extensions:
            X509v3 Basic Constraints: 
                CA:FALSE
            X509v3 Subject Key Identifier: 
                00:3B:35:9E:BC:0C:A5:E1:2D:75:DB:A5:31:59:38:55:C9:1F:96:32
            X509v3 Extended Key Usage: 
                TLS Web Server Authentication
    Signature Algorithm: sha1WithRSAEncryption
         37:79:47:3d:3e:c5:9e:a4:18:ae:39:0c:45:52:f9:30:9a:23:
         47:15:cc:1b:61:60:24:63:27:90:e7:6e:5b:27:e8:c3:00:00:
         9d:92:fa:6d:40:92:2d:04:a1:ba:02:1d:1e:d3:f9:ee:57:5f:
         53:b6:bb:31:21:c6:7f:bf:cd:d1:d5:54:b7:9e:36:54:b3:69:
         1a:a2:ff:3a:12:b7:2f:2c:8e:41:d1:5a:96:ec:c8:c9:07:98:
         dd:09:e6:a9:9b:f3:62:84:aa:dc:c1:25:cd:5b:06:c7:92:d9:
         8c:fe:93:9e:ec:44:72:5d:52:24:62:45:d8:92:81:dc:f6:03:
         bd:18:cf:33:e9:f8:b4:bc:46:ee:42:8b:38:45:fe:fa:f4:df:
         81:8a:c4:16:b9:c0:79:81:ee:4f:98:86:1e:27:f5:38:1c:1d:
         22:b5:c6:02:da:82:0d:9b:d6:92:c4:1a:a6:72:65:38:cd:f3:
         a7:17:ce:cd:89:86:87:6b:ad:ce:b6:71:53:90:0f:b3:46:b1:
         75:9f:7c:ea:de:6e:0e:35:4c:6c:48:e7:7e:ad:13:2e:fd:b6:
         5b:df:3a:bb:a2:b4:96:ed:e6:c5:05:3f:ae:39:28:6e:bb:ab:
         c6:5b:98:a5:fe:ab:41:47:81:b5:27:6e:4c:3f:f1:3e:75:85:
         c7:3c:89:d5:cc:87:5f:5f:7b:b9:79:0e:de:73:d1:8f:1a:14:
         c3:52:7c:5c:bc:2a:81:03:ca:dd:ef:6b:7f:71:5d:49:37:71:
         a6:83:1f:86:1d:50:8c:dc:6c:e0:5e:08:0a:d4:06:9e:08:17:
         e2:66:cc:b9:63:f8:97:bb:a6:c6:f9:b4:2c:98:dc:55:0a:cf:
         9f:3a:73:d1:a7:7d:8a:c4:66:b2:ae:08:5a:93:b6:ca:7b:8c:
         e7:bd:42:06:2f:77:1c:4f:bf:f9:eb:ae:3a:d4:68:8e:c6:b6:
         cb:be:71:82:1a:f1:a4:8b:87:0b:9e:a1:a7:7b:ec:5e:78:53:
         46:d7:89:f4:96:da:26:f1:44:49:77:73:50:88:44:02:a4:dc:
         24:80:98:21:14:0a:17:19:8e:99:4f:11:bf:15:14:14:a1:8b:
         2c:f7:f0:d7:b0:ec:ce:78:1c:e7:bf:eb:a6:b7:57:c4:66:6c:
         c6:79:b6:54:32:51:a4:05:4f:2e:28:06:2b:18:36:c6:c0:e1:
         56:31:0e:b1:df:4a:9a:68:0f:e9:2c:6f:9c:31:2a:3e:a0:b4:
         16:2d:b4:02:49:6b:71:f8:3a:3f:96:9b:c3:14:7b:b4:ca:d7:
         da:4d:a6:f1:23:e1:db:09:0a:33:b4:4e:43:09:1b:ff:9d:aa:
         c6:e7:e3:06:96:15:42:0d
-----BEGIN CERTIFICATE-----
MIIFijCCA3KgAwIBAgIBATANBgkqhkiG9w0BAQUFADBtMRMwEQYDVQQKEwpNeSBD
b21wYW55MRAwDgYDVQQLEwdNeSBVbml0MRAwDgYDVQQHEwdNeSBUb3duMREwDwYD
VQQIEwhNeSBTdGF0ZTELMAkGA1UEBhMCVVMxEjAQBgNVBAMTCVNhbXBsZSBDQTAe
Fw0xNjA0MDQyMTM1NTZaFw0yNjA0MDIyMTM1NTZaMGExCzAJBgNVBAYTAlVTMREw
DwYDVQQIEwhNeSBTdGF0ZTETMBEGA1UEChMKTXkgQ29tcGFueTEWMBQGA1UECxMN
emF0by1sYi1hZ2VudDESMBAGA1UEAxMJbG9jYWxob3N0MIICIjANBgkqhkiG9w0B
AQEFAAOCAg8AMIICCgKCAgEAqLkSsCAgf7bN3MyLISbLIJxP7+gjqjgioahV/MVD
OegfF+etLeC85U2H0B66h0yvFb+5ozfZ7cKvyeDHChDCkV+/y+XnyYz+2BTYytgw
ns/J3Q0Gxu8ivWnA6e1Od/yn+DBqOi6eXJ3zZamp8KTKhHEYd8v7ZzUa/U2+vI/T
4mGvgNczB0b2A4qwx1REtAt+TRo5ieMX/rjEbtHut+EGYsalfUQ/sPMTQQjKZC+3
XszCVdaje/uXdQYVtLK6724X/AJAUhRv9BcgWIvQaI6W4O2Fn9+YS8V8WQasWPjk
VnWmIs47vpbDQ89oRgF1Bw3MFZJeN2+JrWDV7zP2A3HtuAuQtRAtSDqg08NEXnQZ
yQ9yDeTI5epG0T2JXrUm9TQ8o2StdjyhxFScYEeOGFfF8A26V4GFDdg/l4lXXOmN
ntMpYuAy7V3lPUjBUVxJIb1qWs9Yi506AoJgREUmInmB9ofowcWQppio4tA+Q+OU
SDtO/Cv2fqGycX7AIUYakAAEFmMYjtMbpYjd0c9jxAX7SDodF9PLGE1Q3M+I6O8J
udypiXW7U2PWp+GW7RaPlBq7e+B4xdZtlLGVdDNAeb7qXVpnuE7h7PWRK1lIikC7
v66nlK2WB3zBE6Se+yJoZkeNlE7EM5bpXsLuqOhy/2uQbuy+nf9tFBAsKeYCfTQc
zGkCAwEAAaNBMD8wCQYDVR0TBAIwADAdBgNVHQ4EFgQUADs1nrwMpeEtddulMVk4
VckfljIwEwYDVR0lBAwwCgYIKwYBBQUHAwEwDQYJKoZIhvcNAQEFBQADggIBADd5
Rz0+xZ6kGK45DEVS+TCaI0cVzBthYCRjJ5Dnblsn6MMAAJ2S+m1Aki0EoboCHR7T
+e5XX1O2uzEhxn+/zdHVVLeeNlSzaRqi/zoSty8sjkHRWpbsyMkHmN0J5qmb82KE
qtzBJc1bBseS2Yz+k57sRHJdUiRiRdiSgdz2A70YzzPp+LS8Ru5CizhF/vr034GK
xBa5wHmB7k+Yhh4n9TgcHSK1xgLagg2b1pLEGqZyZTjN86cXzs2Jhodrrc62cVOQ
D7NGsXWffOrebg41TGxI536tEy79tlvfOruitJbt5sUFP645KG67q8ZbmKX+q0FH
gbUnbkw/8T51hcc8idXMh19fe7l5Dt5z0Y8aFMNSfFy8KoEDyt3va39xXUk3caaD
H4YdUIzcbOBeCArUBp4IF+JmzLlj+Je7psb5tCyY3FUKz586c9GnfYrEZrKuCFqT
tsp7jOe9QgYvdxxPv/nrrjrUaI7Gtsu+cYIa8aSLhwueoad77F54U0bXifSW2ibx
REl3c1CIRAKk3CSAmCEUChcZjplPEb8VFBShiyz38New7M54HOe/66a3V8RmbMZ5
tlQyUaQFTy4oBisYNsbA4VYxDrHfSppoD+ksb5wxKj6gtBYttAJJa3H4Oj+Wm8MU
e7TK19pNpvEj4dsJCjO0TkMJG/+dqsbn4waWFUIN
-----END CERTIFICATE-----
