Certificate:
    Data:
        Version: 3 (0x2)
        Serial Number: 2 (0x2)
    Signature Algorithm: sha1WithRSAEncryption
        Issuer: O=My Company, OU=My Unit, L=My Town, ST=My State, C=US, CN=Sample CA
        Validity
            Not Before: Apr  4 21:35:57 2016 GMT
            Not After : Apr  2 21:35:57 2026 GMT
        Subject: C=US, ST=My State, O=My Company, OU=web-admin, CN=localhost
        Subject Public Key Info:
            Public Key Algorithm: rsaEncryption
                Public-Key: (4096 bit)
                Modulus:
                    00:c5:e9:8b:82:3f:d9:51:70:df:7b:2d:9c:95:ed:
                    da:e7:e1:8b:71:d4:98:e3:59:f7:ca:a4:bc:f8:3e:
                    8e:1e:49:1a:aa:8e:b3:95:7f:1f:9b:12:ae:7e:d6:
                    08:06:95:08:c2:c8:5b:84:1c:3c:53:21:b1:99:7b:
                    f0:a2:2c:14:07:1e:1a:8f:f7:c4:6d:50:ef:c0:7e:
                    3e:48:7e:57:66:19:46:57:d8:4e:c3:0d:37:e9:96:
                    24:9c:81:a8:5b:29:f4:00:d2:d7:99:cb:14:ad:fa:
                    4f:22:f3:4a:25:6c:cb:47:bf:3a:df:b5:8b:9c:1a:
                    8b:39:40:b2:6e:54:88:bc:11:38:88:50:64:b9:b8:
                    34:f2:b5:5a:59:40:61:07:08:0e:f7:00:79:34:2a:
                    98:05:27:8c:4c:59:76:62:6a:26:05:5b:34:cb:db:
                    b6:55:b1:f1:b2:38:00:1e:d4:0d:54:cc:4e:f1:b1:
                    b6:20:03:2b:2a:ef:27:0b:e9:63:e9:33:24:4d:b8:
                    d6:59:a8:45:c0:39:f3:b8:77:99:00:2f:1d:49:f5:
                    90:b2:f0:a1:0e:5b:b8:d9:27:e5:a0:f8:0d:9b:20:
                    93:a1:a3:bb:67:42:5f:83:57:97:e2:65:22:bf:0c:
                    4f:74:06:09:f4:51:dc:de:7b:18:91:92:b0:87:aa:
                    ae:6a:03:1c:4f:e7:8d:f8:6b:42:ea:7c:29:69:dc:
                    40:ba:36:88:97:79:5e:31:6f:bf:76:11:e3:c9:e9:
                    b1:cf:62:4f:c0:70:2c:97:5e:b2:6a:6c:e1:e7:52:
                    85:b8:ba:ea:5e:ee:17:29:e0:14:d4:32:52:92:07:
                    4f:5e:32:13:70:7d:bd:93:1a:5d:bc:7c:0d:e6:b8:
                    1d:d2:ef:98:15:30:05:50:8b:b9:9b:20:bb:24:76:
                    42:0b:a4:65:6e:01:ea:55:e1:63:50:51:7d:5b:a3:
                    bf:5f:3f:e5:c4:25:66:e9:e4:12:e1:3a:6d:77:2d:
                    e8:ea:b6:ad:34:42:bc:3a:8b:1f:dc:78:b2:8f:5f:
                    f6:9e:0c:4b:a9:4b:d3:11:59:57:0e:55:a9:2b:71:
                    14:9b:a7:1d:75:4b:e6:57:52:af:5b:0c:c4:11:6f:
                    2b:58:bd:c1:8c:e9:02:01:0b:65:2c:61:bd:df:8b:
                    12:77:3d:57:16:ae:bd:0a:75:95:13:f3:97:d9:91:
                    4d:97:f3:aa:a1:23:61:28:69:11:80:55:61:d2:1f:
                    32:69:b9:01:bc:e4:4f:1e:23:e0:9d:2c:75:d0:e5:
                    22:f8:18:75:4b:f7:ee:ff:84:34:ad:96:ac:76:23:
                    79:28:64:d8:ed:ac:78:86:c2:b5:9b:c5:72:8f:62:
                    95:cf:a3
                Exponent: 65537 (0x10001)
        X509v3 extensions:
            X509v3 Basic Constraints: 
                CA:FALSE
            X509v3 Subject Key Identifier: 
                6C:1D:35:EA:80:78:1D:A8:8E:D0:05:D4:09:73:0C:DB:57:E5:BE:5F
            X509v3 Extended Key Usage: 
                TLS Web Server Authentication, TLS Web Client Authentication
    Signature Algorithm: sha1WithRSAEncryption
         6e:50:f7:68:0f:d5:95:da:2b:67:06:0a:52:4f:6d:3d:fa:e6:
         93:5d:07:86:07:af:3c:58:27:62:c5:90:8e:5a:b0:7a:79:4c:
         6b:5d:fd:a9:96:c2:d7:e4:3e:9c:bf:1f:fc:32:5e:55:f6:e5:
         83:ac:1b:72:4a:6c:85:ba:e3:13:ae:c6:8d:c2:fd:8f:3d:36:
         96:8e:58:6d:ff:be:fe:03:43:08:a3:3e:2b:da:c1:00:e3:dc:
         62:c3:f7:5f:d2:d5:78:58:3d:f0:89:1d:6e:25:c3:87:cb:1a:
         51:80:cd:29:52:29:4a:02:e9:d3:d6:26:48:16:9a:ef:32:04:
         fa:e1:b3:5a:62:4a:3e:b0:b7:48:08:b7:12:f6:d3:82:6c:4c:
         60:d5:2f:51:cf:b2:a5:c1:19:35:51:f8:30:2d:44:51:d5:ef:
         d5:bf:0b:9a:db:df:77:4b:08:ef:b3:55:1f:6e:27:aa:b6:1d:
         cd:17:71:22:63:8f:fd:86:78:03:34:8a:08:44:27:76:78:9d:
         ce:ab:f0:5a:5d:a3:69:9a:f5:29:c6:03:21:81:c3:b4:fa:54:
         85:8b:14:1e:41:bc:c1:50:24:a7:ec:dd:12:b3:d9:54:ae:2a:
         55:b0:49:f2:60:75:9e:83:68:69:4b:0a:6e:ca:4b:18:45:a7:
         f3:56:02:d9:4e:d6:64:ea:ff:4d:67:3e:e2:75:58:ee:a5:a3:
         d3:40:85:6f:28:2c:8e:0f:6a:5f:92:9c:34:4a:53:3f:0e:07:
         38:2b:8e:f0:64:00:ba:42:36:01:aa:08:3b:9c:34:f5:da:dd:
         03:5b:46:eb:20:a5:1c:84:4f:ae:d7:9e:f5:94:b9:9f:1e:20:
         73:28:6c:dc:03:da:54:47:7c:7b:05:7b:60:c7:31:05:ed:47:
         c6:fd:52:3b:fd:7d:da:d6:50:0a:20:23:80:6d:61:20:c2:86:
         c6:eb:f9:fc:e6:0f:fd:32:8a:6c:fc:75:7d:a0:6b:7d:4f:03:
         02:8f:a6:ba:09:4e:2f:29:eb:b0:a8:56:df:fa:6f:f4:4c:06:
         3d:36:06:ee:cc:2d:28:d7:5d:74:1f:54:87:a8:ea:6f:7c:04:
         54:c6:1c:af:f1:ae:8c:dc:20:34:c4:5c:16:6d:cb:70:c3:a9:
         61:99:34:f0:c8:dd:b1:b0:7e:fa:b8:59:ad:ab:95:90:26:56:
         6e:22:23:50:c5:2e:2b:ca:73:76:8b:3f:3a:51:a7:b2:2d:5d:
         34:42:23:55:4f:5c:a8:99:ae:17:ef:8a:87:b7:e1:ca:e9:1e:
         35:bb:c2:bf:aa:02:a2:a1:0f:54:67:6f:78:a1:19:74:c6:b9:
         b8:21:83:ff:66:ac:a1:5b
-----BEGIN CERTIFICATE-----
MIIFkDCCA3igAwIBAgIBAjANBgkqhkiG9w0BAQUFADBtMRMwEQYDVQQKEwpNeSBD
b21wYW55MRAwDgYDVQQLEwdNeSBVbml0MRAwDgYDVQQHEwdNeSBUb3duMREwDwYD
VQQIEwhNeSBTdGF0ZTELMAkGA1UEBhMCVVMxEjAQBgNVBAMTCVNhbXBsZSBDQTAe
Fw0xNjA0MDQyMTM1NTdaFw0yNjA0MDIyMTM1NTdaMF0xCzAJBgNVBAYTAlVTMREw
DwYDVQQIEwhNeSBTdGF0ZTETMBEGA1UEChMKTXkgQ29tcGFueTESMBAGA1UECxMJ
d2ViLWFkbWluMRIwEAYDVQQDEwlsb2NhbGhvc3QwggIiMA0GCSqGSIb3DQEBAQUA
A4ICDwAwggIKAoICAQDF6YuCP9lRcN97LZyV7drn4Ytx1JjjWffKpLz4Po4eSRqq
jrOVfx+bEq5+1ggGlQjCyFuEHDxTIbGZe/CiLBQHHhqP98RtUO/Afj5IfldmGUZX
2E7DDTfpliScgahbKfQA0teZyxSt+k8i80olbMtHvzrftYucGos5QLJuVIi8ETiI
UGS5uDTytVpZQGEHCA73AHk0KpgFJ4xMWXZiaiYFWzTL27ZVsfGyOAAe1A1UzE7x
sbYgAysq7ycL6WPpMyRNuNZZqEXAOfO4d5kALx1J9ZCy8KEOW7jZJ+Wg+A2bIJOh
o7tnQl+DV5fiZSK/DE90Bgn0UdzeexiRkrCHqq5qAxxP5434a0LqfClp3EC6NoiX
eV4xb792EePJ6bHPYk/AcCyXXrJqbOHnUoW4uupe7hcp4BTUMlKSB09eMhNwfb2T
Gl28fA3muB3S75gVMAVQi7mbILskdkILpGVuAepV4WNQUX1bo79fP+XEJWbp5BLh
Om13Lejqtq00Qrw6ix/ceLKPX/aeDEupS9MRWVcOVakrcRSbpx11S+ZXUq9bDMQR
bytYvcGM6QIBC2UsYb3fixJ3PVcWrr0KdZUT85fZkU2X86qhI2EoaRGAVWHSHzJp
uQG85E8eI+CdLHXQ5SL4GHVL9+7/hDStlqx2I3koZNjtrHiGwrWbxXKPYpXPowID
AQABo0swSTAJBgNVHRMEAjAAMB0GA1UdDgQWBBRsHTXqgHgdqI7QBdQJcwzbV+W+
XzAdBgNVHSUEFjAUBggrBgEFBQcDAQYIKwYBBQUHAwIwDQYJKoZIhvcNAQEFBQAD
ggIBAG5Q92gP1ZXaK2cGClJPbT365pNdB4YHrzxYJ2LFkI5asHp5TGtd/amWwtfk
Ppy/H/wyXlX25YOsG3JKbIW64xOuxo3C/Y89NpaOWG3/vv4DQwijPivawQDj3GLD
91/S1XhYPfCJHW4lw4fLGlGAzSlSKUoC6dPWJkgWmu8yBPrhs1piSj6wt0gItxL2
04JsTGDVL1HPsqXBGTVR+DAtRFHV79W/C5rb33dLCO+zVR9uJ6q2Hc0XcSJjj/2G
eAM0ighEJ3Z4nc6r8Fpdo2ma9SnGAyGBw7T6VIWLFB5BvMFQJKfs3RKz2VSuKlWw
SfJgdZ6DaGlLCm7KSxhFp/NWAtlO1mTq/01nPuJ1WO6lo9NAhW8oLI4Pal+SnDRK
Uz8OBzgrjvBkALpCNgGqCDucNPXa3QNbRusgpRyET67XnvWUuZ8eIHMobNwD2lRH
fHsFe2DHMQXtR8b9Ujv9fdrWUAogI4BtYSDChsbr+fzmD/0yimz8dX2ga31PAwKP
proJTi8p67CoVt/6b/RMBj02Bu7MLSjXXXQfVIeo6m98BFTGHK/xrozcIDTEXBZt
y3DDqWGZNPDI3bGwfvq4Wa2rlZAmVm4iI1DFLivKc3aLPzpRp7ItXTRCI1VPXKiZ
rhfvioe34crpHjW7wr+qAqKhD1Rnb3ihGXTGubghg/9mrKFb
-----END CERTIFICATE-----
