Certificate:
    Data:
        Version: 3 (0x2)
        Serial Number: 3 (0x3)
    Signature Algorithm: sha1WithRSAEncryption
        Issuer: O=My Company, OU=My Unit, L=My Town, ST=My State, C=US, CN=Sample CA
        Validity
            Not Before: Apr  4 21:35:58 2016 GMT
            Not After : Apr  2 21:35:58 2026 GMT
        Subject: C=US, ST=My State, O=My Company, OU=quickstart-123137:server1, CN=localhost
        Subject Public Key Info:
            Public Key Algorithm: rsaEncryption
                Public-Key: (4096 bit)
                Modulus:
                    00:bf:6f:d3:5e:37:1d:b4:91:96:c3:9a:84:75:fa:
                    b2:fd:c1:a2:fc:a7:e4:b8:1d:1f:18:df:a3:40:4c:
                    a6:0c:c2:2a:f6:73:9e:82:9c:b6:71:92:ab:63:6c:
                    15:fa:39:34:a9:c6:1e:8e:29:5f:35:15:ba:0c:ec:
                    e4:53:20:a8:bb:51:39:dc:48:6b:e5:c5:b5:89:fa:
                    ab:cc:8b:fe:95:a1:ea:60:9d:64:6b:ad:93:87:2b:
                    91:26:14:23:40:66:56:b3:11:cc:a3:24:71:7c:90:
                    36:2a:ff:84:68:27:1e:ce:ad:b8:bc:03:b2:53:b2:
                    63:c7:9e:95:0d:1e:60:5c:dd:25:c9:eb:38:eb:16:
                    5f:a9:82:de:87:67:d4:bd:6f:38:fb:e1:6f:a7:ac:
                    06:20:d0:fc:ad:bb:0c:97:c0:51:2d:0d:86:54:56:
                    b8:22:59:8d:a8:8b:89:13:de:6e:3d:92:1d:f7:45:
                    6b:02:4a:54:f4:fe:49:e8:45:c2:0a:d9:ba:1e:ef:
                    78:b0:85:3c:9f:5a:1c:79:59:4d:b2:e3:8b:b6:6c:
                    48:7c:c4:82:a9:a3:11:df:45:18:a5:25:38:72:df:
                    b5:cb:a3:6b:62:22:60:e0:52:aa:25:4d:c6:b3:52:
                    62:f6:99:a4:b3:54:5c:3c:80:13:3d:a1:79:64:67:
                    f2:e9:8e:85:8d:ad:e7:87:ca:62:d1:27:64:49:41:
                    71:b7:85:79:42:59:12:1d:60:34:f6:72:26:d1:e7:
                    6e:4b:0b:63:ef:e8:c1:be:21:8a:05:7d:bf:09:55:
                    f1:2b:9e:6e:b8:79:27:d0:0a:a8:bf:08:9d:9b:49:
                    b5:82:2c:c6:20:d9:91:25:92:77:2f:af:55:38:d6:
                    aa:8a:61:fb:88:82:f7:00:cf:38:ca:78:6b:d0:73:
                    4a:af:96:4a:25:b5:17:71:b6:61:a8:b5:df:d7:2c:
                    c0:4e:5d:45:c8:99:d1:d9:58:95:b5:03:aa:ad:c9:
                    c7:ab:b2:5f:77:9b:1c:35:d2:fc:e7:d3:07:b6:82:
                    a3:fb:98:ec:c4:84:c9:a7:2f:1d:52:89:52:b6:c1:
                    c5:12:54:25:47:f1:b8:98:11:e9:7c:e1:b5:9e:b8:
                    f4:00:ee:65:19:5d:8e:09:54:31:20:b2:33:e9:7a:
                    ca:3e:18:d1:98:c1:16:1d:41:bb:fb:c2:33:17:e3:
                    96:f3:70:e0:f4:2d:9a:dd:8b:35:a0:80:6f:fa:c0:
                    1e:7d:6d:75:e2:15:26:2f:05:2c:1e:32:2b:88:d3:
                    3e:17:d2:c8:6c:d1:d3:f0:41:ad:6a:70:dd:68:99:
                    e9:e0:0e:c1:00:15:90:8c:6d:ad:26:bc:06:49:57:
                    62:15:bf
                Exponent: 65537 (0x10001)
        X509v3 extensions:
            X509v3 Basic Constraints: 
                CA:FALSE
            X509v3 Subject Key Identifier: 
                28:31:55:BB:F8:69:47:90:03:41:3E:D5:0B:44:A8:21:F5:A2:47:E3
            X509v3 Extended Key Usage: 
                TLS Web Server Authentication, TLS Web Client Authentication
    Signature Algorithm: sha1WithRSAEncryption
         91:b1:6a:34:06:b5:88:4c:5c:43:d2:0e:b3:a9:f3:e8:cc:cf:
         de:0a:2a:24:3a:52:ad:d7:60:af:8f:39:51:22:23:b6:6e:0a:
         8e:3d:35:52:65:0d:97:2d:7b:91:81:66:aa:4f:e0:01:39:2a:
         1b:56:c9:52:0a:db:37:2c:ec:5f:a3:aa:7d:dc:76:6e:5e:22:
         d0:6b:b8:60:cd:cf:51:e8:d1:f6:ac:2b:15:0e:e3:95:6f:40:
         e7:78:04:62:40:5f:e1:51:2c:40:c8:8c:4c:83:c1:5b:9d:86:
         14:c1:a3:80:68:09:77:6c:78:05:fa:e6:10:9a:8e:23:c2:ba:
         44:30:64:bc:1f:4d:f7:08:ab:c5:2b:37:a1:0e:d3:47:75:0c:
         08:01:38:0e:d9:75:f5:25:6a:06:35:a5:1e:e9:1b:38:53:33:
         e9:b5:00:08:8b:7d:a3:75:37:9d:4c:be:6f:37:a5:f6:e1:54:
         15:4f:32:5d:8c:bf:b6:91:64:28:0b:76:7f:da:f4:3e:8c:fe:
         12:56:2c:ab:2f:ee:c0:16:3f:9e:b8:44:f4:44:9b:51:47:69:
         d5:c2:d8:9a:59:12:cd:d7:cc:d6:71:ec:45:72:9d:09:9b:92:
         27:c5:68:bf:b4:ea:45:41:49:36:a9:4d:85:31:0c:79:a6:17:
         15:7a:c1:30:f3:40:ed:bf:00:11:f7:15:03:6c:42:ef:55:0b:
         10:70:73:04:7d:13:24:32:84:d0:6a:84:27:33:19:c3:a3:e3:
         b3:7c:07:9d:f1:5b:b9:8b:f4:83:fe:53:75:ac:d2:5c:75:c9:
         6c:5c:3d:cf:9d:46:6f:b6:f3:8a:8b:d8:3b:dd:4c:e1:cf:45:
         24:0b:9c:f7:d0:89:d4:1c:f8:b2:00:fc:72:ed:cd:09:17:59:
         e8:71:09:9a:10:78:67:c4:77:6d:f3:71:6c:9c:b0:80:23:2c:
         46:6c:65:d2:9e:95:f6:c3:b2:ba:c4:65:c4:8e:f5:44:46:85:
         90:74:6b:64:b7:fa:43:9b:eb:e2:ab:2a:46:dd:35:e0:69:0d:
         93:a8:1b:b6:e4:0b:5a:b2:54:f9:6e:bd:92:3c:40:78:49:59:
         81:5f:42:94:d1:e8:58:04:96:15:7e:6e:a4:7b:15:1b:8f:ab:
         26:9a:81:3e:89:67:2e:f1:26:59:b2:5a:be:15:eb:ee:16:02:
         9f:a1:a0:9a:19:02:8e:b2:5b:1d:20:ec:14:87:c8:60:4e:9b:
         da:6d:7b:c6:18:18:44:5d:5f:e5:46:17:45:ce:28:c4:86:7a:
         7a:db:68:78:82:7b:98:e6:4a:41:99:3e:2f:84:54:c7:3a:fa:
         9e:65:5c:88:7f:5b:f4:52
-----BEGIN CERTIFICATE-----
MIIFoDCCA4igAwIBAgIBAzANBgkqhkiG9w0BAQUFADBtMRMwEQYDVQQKEwpNeSBD
b21wYW55MRAwDgYDVQQLEwdNeSBVbml0MRAwDgYDVQQHEwdNeSBUb3duMREwDwYD
VQQIEwhNeSBTdGF0ZTELMAkGA1UEBhMCVVMxEjAQBgNVBAMTCVNhbXBsZSBDQTAe
Fw0xNjA0MDQyMTM1NThaFw0yNjA0MDIyMTM1NThaMG0xCzAJBgNVBAYTAlVTMREw
DwYDVQQIEwhNeSBTdGF0ZTETMBEGA1UEChMKTXkgQ29tcGFueTEiMCAGA1UECxMZ
cXVpY2tzdGFydC0xMjMxMzc6c2VydmVyMTESMBAGA1UEAxMJbG9jYWxob3N0MIIC
IjANBgkqhkiG9w0BAQEFAAOCAg8AMIICCgKCAgEAv2/TXjcdtJGWw5qEdfqy/cGi
/KfkuB0fGN+jQEymDMIq9nOegpy2cZKrY2wV+jk0qcYejilfNRW6DOzkUyCou1E5
3Ehr5cW1ifqrzIv+laHqYJ1ka62ThyuRJhQjQGZWsxHMoyRxfJA2Kv+EaCcezq24
vAOyU7Jjx56VDR5gXN0lyes46xZfqYLeh2fUvW84++Fvp6wGIND8rbsMl8BRLQ2G
VFa4IlmNqIuJE95uPZId90VrAkpU9P5J6EXCCtm6Hu94sIU8n1oceVlNsuOLtmxI
fMSCqaMR30UYpSU4ct+1y6NrYiJg4FKqJU3Gs1Ji9pmks1RcPIATPaF5ZGfy6Y6F
ja3nh8pi0SdkSUFxt4V5QlkSHWA09nIm0eduSwtj7+jBviGKBX2/CVXxK55uuHkn
0Aqovwidm0m1gizGINmRJZJ3L69VONaqimH7iIL3AM84ynhr0HNKr5ZKJbUXcbZh
qLXf1yzATl1FyJnR2ViVtQOqrcnHq7Jfd5scNdL859MHtoKj+5jsxITJpy8dUolS
tsHFElQlR/G4mBHpfOG1nrj0AO5lGV2OCVQxILIz6XrKPhjRmMEWHUG7+8IzF+OW
83Dg9C2a3Ys1oIBv+sAefW114hUmLwUsHjIriNM+F9LIbNHT8EGtanDdaJnp4A7B
ABWQjG2tJrwGSVdiFb8CAwEAAaNLMEkwCQYDVR0TBAIwADAdBgNVHQ4EFgQUKDFV
u/hpR5ADQT7VC0SoIfWiR+MwHQYDVR0lBBYwFAYIKwYBBQUHAwEGCCsGAQUFBwMC
MA0GCSqGSIb3DQEBBQUAA4ICAQCRsWo0BrWITFxD0g6zqfPozM/eCiokOlKt12Cv
jzlRIiO2bgqOPTVSZQ2XLXuRgWaqT+ABOSobVslSCts3LOxfo6p93HZuXiLQa7hg
zc9R6NH2rCsVDuOVb0DneARiQF/hUSxAyIxMg8FbnYYUwaOAaAl3bHgF+uYQmo4j
wrpEMGS8H033CKvFKzehDtNHdQwIATgO2XX1JWoGNaUe6Rs4UzPptQAIi32jdTed
TL5vN6X24VQVTzJdjL+2kWQoC3Z/2vQ+jP4SViyrL+7AFj+euET0RJtRR2nVwtia
WRLN18zWcexFcp0Jm5InxWi/tOpFQUk2qU2FMQx5phcVesEw80DtvwAR9xUDbELv
VQsQcHMEfRMkMoTQaoQnMxnDo+OzfAed8Vu5i/SD/lN1rNJcdclsXD3PnUZvtvOK
i9g73Uzhz0UkC5z30InUHPiyAPxy7c0JF1nocQmaEHhnxHdt83FsnLCAIyxGbGXS
npX2w7K6xGXEjvVERoWQdGtkt/pDm+viqypG3TXgaQ2TqBu25AtaslT5br2SPEB4
SVmBX0KU0ehYBJYVfm6kexUbj6smmoE+iWcu8SZZslq+FevuFgKfoaCaGQKOslsd
IOwUh8hgTpvabXvGGBhEXV/lRhdFzijEhnp622h4gnuY5kpBmT4vhFTHOvqeZVyI
f1v0Ug==
-----END CERTIFICATE-----
